(dp0
VServer
p1
Vcmsweb.cern.ch
p2
sVPort
p3
V
p4
sVRequestName
p5
V240201_175416:lfrosina_crab_Run2_DATA_FullParticles_Aggregation_LeadingD
p6
sVvoRole
p7
VNULL
p8
sVvoGroup
p9
g4
sVinstance
p10
Vprod
p11
sVOriginalConfig
p12
ccopy_reg
_reconstructor
p13
(cWMCore.Configuration
Configuration
p14
c__builtin__
object
p15
Ntp16
Rp17
(dp18
V_internal_sections
p19
(lp20
VGeneral
p21
aVJobType
p22
aVData
p23
aVSite
p24
aVUser
p25
aVDebug
p26
asg21
g13
(cWMCore.Configuration
ConfigSection
p27
g15
Ntp28
Rp29
(dp30
V_internal_documentation
p31
g4
sV_internal_name
p32
g21
sV_internal_settings
p33
c__builtin__
set
p34
((lp35
VtransferOutputs
p36
aVrequestName
p37
atp38
Rp39
sV_internal_docstrings
p40
(dp41
sV_internal_children
p42
g34
((lp43
tp44
Rp45
sV_internal_parent_ref
p46
NsV_internal_skipChecks
p47
I00
sg36
I01
sg37
VRun2_DATA_FullParticles_Aggregation_LeadingD
p48
sbsg22
g13
(g27
g15
Ntp49
Rp50
(dp51
g31
g4
sg32
g22
sg33
g34
((lp52
VoutputFiles
p53
aVmaxMemoryMB
p54
aVpluginName
p55
aVpsetName
p56
atp57
Rp58
sg40
(dp59
sg42
g34
((lp60
tp61
Rp62
sg46
Nsg47
I00
sg56
Vforest_miniAOD_run2_DATA_wDfinder.py
p63
sg55
VAnalysis
p64
sg53
(lp65
VHiForestMiniAOD_FullParticles_DATA_Dfinder.root
p66
asg54
I5000
sbsg23
g13
(g27
g15
Ntp67
Rp68
(dp69
g31
g4
sg32
g23
sg33
g34
((lp70
Vpublication
p71
aVtotalUnits
p72
aVinputDataset
p73
aVsplitting
p74
aVunitsPerJob
p75
aVoutLFNDirBase
p76
atp77
Rp78
sg40
(dp79
sg42
g34
((lp80
tp81
Rp82
sg46
Nsg47
I00
sg73
V/HIHardProbes/HIRun2018A-PbPb18_MiniAODv1-v1/MINIAOD
p83
sg71
I00
sg72
I-1
sg75
I30000
sg74
VEventAwareLumiBased
p84
sg76
V/store/user/lfrosina/Run2_dfinder_DATA_FullParticles_aggregation_LeadingD
p85
sbsg24
g13
(g27
g15
Ntp86
Rp87
(dp88
g31
g4
sg32
g24
sg33
g34
((lp89
VstorageSite
p90
atp91
Rp92
sg40
(dp93
sg42
g34
((lp94
tp95
Rp96
sg46
Nsg47
I00
sg90
VT2_IT_Rome
p97
sbsg25
g13
(g27
g15
Ntp98
Rp99
(dp100
g31
g4
sg32
g25
sg33
g34
((lp101
tp102
Rp103
sg40
(dp104
sg42
g34
((lp105
tp106
Rp107
sg46
Nsg47
I00
sbsg26
g13
(g27
g15
Ntp108
Rp109
(dp110
g31
g4
sg32
g26
sg33
g34
((lp111
tp112
Rp113
sg40
(dp114
sg42
g34
((lp115
tp116
Rp117
sg46
Nsg47
I00
sbsbs.